target datalayout = "e-m:e-p270:32:32-p271:32:32-p272:64:64-i64:64-i128:128-f80:128-n8:16:32:64-S128"
target triple = "x86_64-pc-linux-gnu"

%struct.mbedtls_mpi = type { i32, i64, ptr }

; Function Attrs: mustprogress nounwind uwtable
define internal noundef i32 @_ZL27mbedtls_ct_cond_select_signhii(i8 noundef zeroext %0, i32 noundef %1, i32 noundef %2) #0 {
  %4 = alloca i8, align 1
  %5 = alloca i32, align 4
  %6 = alloca i32, align 4
  %7 = alloca i32, align 4
  %8 = alloca i32, align 4
  %9 = alloca i32, align 4
  %10 = alloca i32, align 4
  store i8 %0, ptr %4, align 1, !tbaa !11
  store i32 %1, ptr %5, align 4, !tbaa !14
  store i32 %2, ptr %6, align 4, !tbaa !14
  call void @llvm.lifetime.start.p0(i64 4, ptr %7) #5
  %11 = load i32, ptr %5, align 4, !tbaa !14
  %12 = add nsw i32 %11, 1
  store i32 %12, ptr %7, align 4, !tbaa !14
  call void @llvm.lifetime.start.p0(i64 4, ptr %8) #5
  %13 = load i32, ptr %6, align 4, !tbaa !14
  %14 = add nsw i32 %13, 1
  store i32 %14, ptr %8, align 4, !tbaa !14
  call void @llvm.lifetime.start.p0(i64 4, ptr %9) #5
  %15 = load i8, ptr %4, align 1, !tbaa !11
  %16 = zext i8 %15 to i32
  %17 = shl i32 %16, 1
  store i32 %17, ptr %9, align 4, !tbaa !14
  call void @llvm.lifetime.start.p0(i64 4, ptr %10) #5
  %18 = load i32, ptr %8, align 4, !tbaa !14
  %19 = load i32, ptr %9, align 4, !tbaa !14
  %20 = xor i32 %19, -1
  %21 = and i32 %18, %20
  %22 = load i32, ptr %7, align 4, !tbaa !14
  %23 = load i32, ptr %9, align 4, !tbaa !14
  %24 = and i32 %22, %23
  %25 = or i32 %21, %24
  store i32 %25, ptr %10, align 4, !tbaa !14
  %26 = load i32, ptr %10, align 4, !tbaa !14
  %27 = sub nsw i32 %26, 1
  call void @llvm.lifetime.end.p0(i64 4, ptr %10) #5
  call void @llvm.lifetime.end.p0(i64 4, ptr %9) #5
  call void @llvm.lifetime.end.p0(i64 4, ptr %8) #5
  call void @llvm.lifetime.end.p0(i64 4, ptr %7) #5
  ret i32 %27
}

; Function Attrs: mustprogress nounwind uwtable
define hidden noundef i64 @_Z24mbedtls_ct_mpi_uint_maskm(i64 noundef %0) #0 {
  %2 = alloca i64, align 8
  store i64 %0, ptr %2, align 8, !tbaa !7
  %3 = load i64, ptr %2, align 8, !tbaa !7
  %4 = load i64, ptr %2, align 8, !tbaa !7
  %5 = sub i64 0, %4
  %6 = or i64 %3, %5
  %7 = lshr i64 %6, 63
  %8 = sub i64 0, %7
  ret i64 %8
}

; Function Attrs: mustprogress uwtable
define hidden i32 @mbedtls_mpi_safe_cond_swap(ptr noundef %0, ptr noundef %1, i8 noundef zeroext %2) #2 {
  %4 = alloca i32, align 4
  %5 = alloca ptr, align 8
  %6 = alloca ptr, align 8
  %7 = alloca i8, align 1
  %8 = alloca i32, align 4
  %9 = alloca i32, align 4
  %10 = alloca i64, align 8
  %11 = alloca i64, align 8
  %12 = alloca i64, align 8
  %13 = alloca i32, align 4
  store ptr %0, ptr %5, align 8, !tbaa !19
  store ptr %1, ptr %6, align 8, !tbaa !19
  store i8 %2, ptr %7, align 1, !tbaa !11
  call void @llvm.lifetime.start.p0(i64 4, ptr %8) #5
  call void @llvm.lifetime.start.p0(i64 4, ptr %9) #5
  call void @llvm.lifetime.start.p0(i64 8, ptr %10) #5
  call void @llvm.lifetime.start.p0(i64 8, ptr %11) #5
  call void @llvm.lifetime.start.p0(i64 8, ptr %12) #5
  br label %14

14:                                               ; preds = %3
  br label %15

15:                                               ; preds = %14
  br label %16

16:                                               ; preds = %15
  br label %17

17:                                               ; preds = %16
  br label %18

18:                                               ; preds = %17
  br label %19

19:                                               ; preds = %18
  %20 = load ptr, ptr %5, align 8, !tbaa !19
  %21 = load ptr, ptr %6, align 8, !tbaa !19
  %22 = icmp eq ptr %20, %21
  br i1 %22, label %23, label %24

23:                                               ; preds = %19
  store i32 0, ptr %4, align 4
  store i32 1, ptr %13, align 4
  br label %131

24:                                               ; preds = %19
  %25 = load i8, ptr %7, align 1, !tbaa !11
  %26 = zext i8 %25 to i64
  %27 = call noundef i64 @_Z24mbedtls_ct_mpi_uint_maskm(i64 noundef %26)
  store i64 %27, ptr %11, align 8, !tbaa !7
  br label %28

28:                                               ; preds = %24
  %29 = load ptr, ptr %5, align 8, !tbaa !19
  %30 = load ptr, ptr %6, align 8, !tbaa !19
  %31 = getelementptr inbounds nuw %struct.mbedtls_mpi, ptr %30, i32 0, i32 1
  %32 = load i64, ptr %31, align 8, !tbaa !21
  %33 = call i32 @mbedtls_mpi_grow(ptr noundef %29, i64 noundef %32)
  store i32 %33, ptr %8, align 4, !tbaa !14
  %34 = icmp ne i32 %33, 0
  br i1 %34, label %35, label %36

35:                                               ; preds = %28
  br label %129

36:                                               ; preds = %28
  br label %37

37:                                               ; preds = %36
  br label %38

38:                                               ; preds = %37
  br label %39

39:                                               ; preds = %38
  %40 = load ptr, ptr %6, align 8, !tbaa !19
  %41 = load ptr, ptr %5, align 8, !tbaa !19
  %42 = getelementptr inbounds nuw %struct.mbedtls_mpi, ptr %41, i32 0, i32 1
  %43 = load i64, ptr %42, align 8, !tbaa !21
  %44 = call i32 @mbedtls_mpi_grow(ptr noundef %40, i64 noundef %43)
  store i32 %44, ptr %8, align 4, !tbaa !14
  %45 = icmp ne i32 %44, 0
  br i1 %45, label %46, label %47

46:                                               ; preds = %39
  br label %129

47:                                               ; preds = %39
  br label %48

48:                                               ; preds = %47
  br label %49

49:                                               ; preds = %48
  %50 = load ptr, ptr %5, align 8, !tbaa !19
  %51 = getelementptr inbounds nuw %struct.mbedtls_mpi, ptr %50, i32 0, i32 0
  %52 = load i32, ptr %51, align 8, !tbaa !23
  store i32 %52, ptr %9, align 4, !tbaa !14
  %53 = load i8, ptr %7, align 1, !tbaa !11
  %54 = load ptr, ptr %6, align 8, !tbaa !19
  %55 = getelementptr inbounds nuw %struct.mbedtls_mpi, ptr %54, i32 0, i32 0
  %56 = load i32, ptr %55, align 8, !tbaa !23
  %57 = load ptr, ptr %5, align 8, !tbaa !19
  %58 = getelementptr inbounds nuw %struct.mbedtls_mpi, ptr %57, i32 0, i32 0
  %59 = load i32, ptr %58, align 8, !tbaa !23
  %60 = call noundef i32 @_ZL27mbedtls_ct_cond_select_signhii(i8 noundef zeroext %53, i32 noundef %56, i32 noundef %59)
  %61 = load ptr, ptr %5, align 8, !tbaa !19
  %62 = getelementptr inbounds nuw %struct.mbedtls_mpi, ptr %61, i32 0, i32 0
  store i32 %60, ptr %62, align 8, !tbaa !23
  %63 = load i8, ptr %7, align 1, !tbaa !11
  %64 = load i32, ptr %9, align 4, !tbaa !14
  %65 = load ptr, ptr %6, align 8, !tbaa !19
  %66 = getelementptr inbounds nuw %struct.mbedtls_mpi, ptr %65, i32 0, i32 0
  %67 = load i32, ptr %66, align 8, !tbaa !23
  %68 = call noundef i32 @_ZL27mbedtls_ct_cond_select_signhii(i8 noundef zeroext %63, i32 noundef %64, i32 noundef %67)
  %69 = load ptr, ptr %6, align 8, !tbaa !19
  %70 = getelementptr inbounds nuw %struct.mbedtls_mpi, ptr %69, i32 0, i32 0
  store i32 %68, ptr %70, align 8, !tbaa !23
  store i64 0, ptr %10, align 8, !tbaa !7
  br label %71

71:                                               ; preds = %125, %49
  %72 = load i64, ptr %10, align 8, !tbaa !7
  %73 = load ptr, ptr %5, align 8, !tbaa !19
  %74 = getelementptr inbounds nuw %struct.mbedtls_mpi, ptr %73, i32 0, i32 1
  %75 = load i64, ptr %74, align 8, !tbaa !21
  %76 = icmp ult i64 %72, %75
  br i1 %76, label %77, label %128

77:                                               ; preds = %71
  %78 = load ptr, ptr %5, align 8, !tbaa !19
  %79 = getelementptr inbounds nuw %struct.mbedtls_mpi, ptr %78, i32 0, i32 2
  %80 = load ptr, ptr %79, align 8, !tbaa !24
  %81 = load i64, ptr %10, align 8, !tbaa !7
  %82 = getelementptr inbounds nuw i64, ptr %80, i64 %81
  %83 = load i64, ptr %82, align 8, !tbaa !7
  store i64 %83, ptr %12, align 8, !tbaa !7
  %84 = load ptr, ptr %5, align 8, !tbaa !19
  %85 = getelementptr inbounds nuw %struct.mbedtls_mpi, ptr %84, i32 0, i32 2
  %86 = load ptr, ptr %85, align 8, !tbaa !24
  %87 = load i64, ptr %10, align 8, !tbaa !7
  %88 = getelementptr inbounds nuw i64, ptr %86, i64 %87
  %89 = load i64, ptr %88, align 8, !tbaa !7
  %90 = load i64, ptr %11, align 8, !tbaa !7
  %91 = xor i64 %90, -1
  %92 = and i64 %89, %91
  %93 = load ptr, ptr %6, align 8, !tbaa !19
  %94 = getelementptr inbounds nuw %struct.mbedtls_mpi, ptr %93, i32 0, i32 2
  %95 = load ptr, ptr %94, align 8, !tbaa !24
  %96 = load i64, ptr %10, align 8, !tbaa !7
  %97 = getelementptr inbounds nuw i64, ptr %95, i64 %96
  %98 = load i64, ptr %97, align 8, !tbaa !7
  %99 = load i64, ptr %11, align 8, !tbaa !7
  %100 = and i64 %98, %99
  %101 = or i64 %92, %100
  %102 = load ptr, ptr %5, align 8, !tbaa !19
  %103 = getelementptr inbounds nuw %struct.mbedtls_mpi, ptr %102, i32 0, i32 2
  %104 = load ptr, ptr %103, align 8, !tbaa !24
  %105 = load i64, ptr %10, align 8, !tbaa !7
  %106 = getelementptr inbounds nuw i64, ptr %104, i64 %105
  store i64 %101, ptr %106, align 8, !tbaa !7
  %107 = load ptr, ptr %6, align 8, !tbaa !19
  %108 = getelementptr inbounds nuw %struct.mbedtls_mpi, ptr %107, i32 0, i32 2
  %109 = load ptr, ptr %108, align 8, !tbaa !24
  %110 = load i64, ptr %10, align 8, !tbaa !7
  %111 = getelementptr inbounds nuw i64, ptr %109, i64 %110
  %112 = load i64, ptr %111, align 8, !tbaa !7
  %113 = load i64, ptr %11, align 8, !tbaa !7
  %114 = xor i64 %113, -1
  %115 = and i64 %112, %114
  %116 = load i64, ptr %12, align 8, !tbaa !7
  %117 = load i64, ptr %11, align 8, !tbaa !7
  %118 = and i64 %116, %117
  %119 = or i64 %115, %118
  %120 = load ptr, ptr %6, align 8, !tbaa !19
  %121 = getelementptr inbounds nuw %struct.mbedtls_mpi, ptr %120, i32 0, i32 2
  %122 = load ptr, ptr %121, align 8, !tbaa !24
  %123 = load i64, ptr %10, align 8, !tbaa !7
  %124 = getelementptr inbounds nuw i64, ptr %122, i64 %123
  store i64 %119, ptr %124, align 8, !tbaa !7
  br label %125

125:                                              ; preds = %77
  %126 = load i64, ptr %10, align 8, !tbaa !7
  %127 = add i64 %126, 1
  store i64 %127, ptr %10, align 8, !tbaa !7
  br label %71, !llvm.loop !26

128:                                              ; preds = %71
  br label %129

129:                                              ; preds = %128, %46, %35
  %130 = load i32, ptr %8, align 4, !tbaa !14
  store i32 %130, ptr %4, align 4
  store i32 1, ptr %13, align 4
  br label %131

131:                                              ; preds = %129, %23
  call void @llvm.lifetime.end.p0(i64 8, ptr %12) #5
  call void @llvm.lifetime.end.p0(i64 8, ptr %11) #5
  call void @llvm.lifetime.end.p0(i64 8, ptr %10) #5
  call void @llvm.lifetime.end.p0(i64 4, ptr %9) #5
  call void @llvm.lifetime.end.p0(i64 4, ptr %8) #5
  %132 = load i32, ptr %4, align 4
  ret i32 %132
}