; Function Attrs: mustprogress uwtable
define hidden i32 @mbedtls_mpi_safe_cond_swap(ptr noundef %0, ptr noundef %1, i8 noundef zeroext %2) local_unnamed_addr #4 {
  %4 = icmp eq ptr %0, %1
  br i1 %4, label %.loopexit, label %5

5:                                                ; preds = %3
  %.not44 = icmp eq i8 %2, 0
  %6 = getelementptr inbounds nuw i8, ptr %1, i64 8
  %7 = load i64, ptr %6, align 8, !tbaa !11
  %8 = tail call i32 @mbedtls_mpi_grow(ptr noundef %0, i64 noundef %7)
  %.not = icmp eq i32 %8, 0
  br i1 %.not, label %9, label %.loopexit

9:                                                ; preds = %5
  %10 = getelementptr inbounds nuw i8, ptr %0, i64 8
  %11 = load i64, ptr %10, align 8, !tbaa !11
  %12 = tail call i32 @mbedtls_mpi_grow(ptr noundef nonnull %1, i64 noundef %11)
  %.not43 = icmp eq i32 %12, 0
  br i1 %.not43, label %13, label %.loopexit

13:                                               ; preds = %9
  %14 = load i32, ptr %0, align 8, !tbaa !16
  %15 = load i32, ptr %1, align 8, !tbaa !16
  %16 = add nsw i32 %15, 1
  %17 = add nsw i32 %14, 1
  %18 = zext i8 %2 to i32
  %19 = shl nuw nsw i32 %18, 1
  %20 = xor i32 %19, -1
  %21 = and i32 %17, %20
  %22 = and i32 %16, %19
  %23 = add i32 %21, -1
  %24 = add i32 %23, %22
  store i32 %24, ptr %0, align 8, !tbaa !16
  %25 = load i32, ptr %1, align 8, !tbaa !16
  %26 = add nsw i32 %25, 1
  %27 = and i32 %26, %20
  %28 = and i32 %17, %19
  %29 = add nsw i32 %28, -1
  %30 = add i32 %29, %27
  store i32 %30, ptr %1, align 8, !tbaa !16
  %31 = load i64, ptr %10, align 8, !tbaa !11
  %.not46 = icmp eq i64 %31, 0
  br i1 %.not46, label %.loopexit, label %.lr.ph

.lr.ph:                                           ; preds = %13
  %32 = getelementptr inbounds nuw i8, ptr %0, i64 16
  %33 = load ptr, ptr %32, align 8, !tbaa !17
  %34 = getelementptr inbounds nuw i8, ptr %1, i64 16
  %35 = load ptr, ptr %34, align 8, !tbaa !17
  br i1 %.not44, label %.loopexit, label %.lr.ph.split

.lr.ph.split:                                     ; preds = %.lr.ph, %.lr.ph.split
  %.03845 = phi i64 [ %40, %.lr.ph.split ], [ 0, %.lr.ph ]
  %36 = getelementptr inbounds nuw i64, ptr %33, i64 %.03845
  %37 = load i64, ptr %36, align 8, !tbaa !8
  %38 = getelementptr inbounds nuw i64, ptr %35, i64 %.03845
  %39 = load i64, ptr %38, align 8, !tbaa !8
  store i64 %39, ptr %36, align 8, !tbaa !8
  store i64 %37, ptr %38, align 8, !tbaa !8
  %40 = add nuw i64 %.03845, 1
  %41 = load i64, ptr %10, align 8, !tbaa !11
  %42 = icmp ult i64 %40, %41
  br i1 %42, label %.lr.ph.split, label %.loopexit, !llvm.loop !19

.loopexit:                                        ; preds = %.lr.ph.split, %.lr.ph, %13, %5, %9, %3
  %.0 = phi i32 [ 0, %3 ], [ %8, %5 ], [ %12, %9 ], [ 0, %13 ], [ 0, %.lr.ph ], [ 0, %.lr.ph.split ]
  ret i32 %.0
}